target datalayout = "e-m:e-p270:32:32-p271:32:32-p272:64:64-i64:64-i128:128-f80:128-n8:16:32:64-S128"
target triple = "x86_64-unknown-linux-gnu"

%"class.ue2::ComponentAssertion" = type { %"class.ue2::ComponentSequence", i32, i32 }
%"class.ue2::ComponentSequence" = type { %"class.ue2::Component", %"class.std::vector", %"class.std::unique_ptr", i32, %"class.std::__cxx11::basic_string" }
%"class.ue2::Component" = type { ptr, i32, i32 }
%"class.std::vector" = type { %"struct.std::_Vector_base" }
%"struct.std::_Vector_base" = type { %"struct.std::_Vector_base<std::unique_ptr<ue2::Component>, std::allocator<std::unique_ptr<ue2::Component>>>::_Vector_impl" }
%"struct.std::_Vector_base<std::unique_ptr<ue2::Component>, std::allocator<std::unique_ptr<ue2::Component>>>::_Vector_impl" = type { %"struct.std::_Vector_base<std::unique_ptr<ue2::Component>, std::allocator<std::unique_ptr<ue2::Component>>>::_Vector_impl_data" }
%"struct.std::_Vector_base<std::unique_ptr<ue2::Component>, std::allocator<std::unique_ptr<ue2::Component>>>::_Vector_impl_data" = type { ptr, ptr, ptr }
%"class.std::unique_ptr" = type { %"struct.std::__uniq_ptr_data" }
%"struct.std::__uniq_ptr_data" = type { %"class.std::__uniq_ptr_impl" }
%"class.std::__uniq_ptr_impl" = type { %"class.std::tuple" }
%"class.std::tuple" = type { %"struct.std::_Tuple_impl" }
%"struct.std::_Tuple_impl" = type { %"struct.std::_Head_base.1" }
%"struct.std::_Head_base.1" = type { ptr }
%"class.std::__cxx11::basic_string" = type { %"struct.std::__cxx11::basic_string<char>::_Alloc_hider", i64, %union.anon }
%"struct.std::__cxx11::basic_string<char>::_Alloc_hider" = type { ptr }
%union.anon = type { i64, [8 x i8] }

; Function Attrs: mustprogress uwtable
define linkonce_odr hidden void @_ZN3ue218ComponentAssertionC2ERKS0_(ptr noundef nonnull align 8 dereferenceable(96) %this, ptr noundef nonnull align 8 dereferenceable(96) %0) unnamed_addr #0 comdat align 2 {
entry:
  %this.addr = alloca ptr, align 8
  %.addr = alloca ptr, align 8
  store ptr %this, ptr %this.addr, align 8
  store ptr %0, ptr %.addr, align 8
  %this1 = load ptr, ptr %this.addr, align 8
  %1 = load ptr, ptr %.addr, align 8
  call void @_ZN3ue217ComponentSequenceC2ERKS0_(ptr noundef nonnull align 8 dereferenceable(88) %this1, ptr noundef nonnull align 8 dereferenceable(88) %1)
  store ptr getelementptr inbounds ({ [20 x ptr] }, ptr @_ZTVN3ue218ComponentAssertionE, i32 0, i32 0, i32 2), ptr %this1, align 8
  %m_dir = getelementptr inbounds %"class.ue2::ComponentAssertion", ptr %this1, i32 0, i32 1
  %2 = load ptr, ptr %.addr, align 8
  %m_dir2 = getelementptr inbounds %"class.ue2::ComponentAssertion", ptr %2, i32 0, i32 1
  call void @llvm.memcpy.p0.p0.i64(ptr align 8 %m_dir, ptr align 8 %m_dir2, i64 8, i1 false)
  ret void
}

; Function Attrs: mustprogress uwtable
define hidden noundef ptr @_ZNK3ue218ComponentAssertion5cloneEv(ptr noundef nonnull align 8 dereferenceable(96) %this) unnamed_addr #0 align 2 personality ptr @__gxx_personality_v0 {
entry:
  %this.addr = alloca ptr, align 8
  %exn.slot = alloca ptr, align 8
  %ehselector.slot = alloca i32, align 4
  store ptr %this, ptr %this.addr, align 8
  %this1 = load ptr, ptr %this.addr, align 8
  %call = call noalias noundef nonnull ptr @_Znwm(i64 noundef 96) #11
  invoke void @_ZN3ue218ComponentAssertionC2ERKS0_(ptr noundef nonnull align 8 dereferenceable(96) %call, ptr noundef nonnull align 8 dereferenceable(96) %this1)
          to label %invoke.cont unwind label %lpad

invoke.cont:                                      ; preds = %entry
  ret ptr %call

lpad:                                             ; preds = %entry
  %0 = landingpad { ptr, i32 }
          cleanup
  %1 = extractvalue { ptr, i32 } %0, 0
  store ptr %1, ptr %exn.slot, align 8
  %2 = extractvalue { ptr, i32 } %0, 1
  store i32 %2, ptr %ehselector.slot, align 4
  call void @_ZdlPv(ptr noundef %call) #10
  br label %eh.resume

eh.resume:                                        ; preds = %lpad
  %exn = load ptr, ptr %exn.slot, align 8
  %sel = load i32, ptr %ehselector.slot, align 4
  %lpad.val = insertvalue { ptr, i32 } poison, ptr %exn, 0
  %lpad.val2 = insertvalue { ptr, i32 } %lpad.val, i32 %sel, 1
  resume { ptr, i32 } %lpad.val2
}