; Function Attrs: mustprogress uwtable
define hidden noundef nonnull ptr @_ZNK3ue218ComponentAssertion5cloneEv(ptr noundef nonnull align 8 dereferenceable(96) %this) unnamed_addr #0 align 2 personality ptr @__gxx_personality_v0 {
entry:
  %call = tail call noalias noundef nonnull dereferenceable(96) ptr @_Znwm(i64 noundef 96) #12
  invoke void @_ZN3ue217ComponentSequenceC2ERKS0_(ptr noundef nonnull align 8 dereferenceable(88) %call, ptr noundef nonnull align 8 dereferenceable(88) %this)
          to label %invoke.cont unwind label %lpad

invoke.cont:                                      ; preds = %entry
  store ptr getelementptr inbounds ({ [20 x ptr] }, ptr @_ZTVN3ue218ComponentAssertionE, i64 0, i32 0, i64 2), ptr %call, align 8
  %m_dir.i = getelementptr inbounds i8, ptr %call, i64 88
  %m_dir2.i = getelementptr inbounds i8, ptr %this, i64 88
  %0 = load i64, ptr %m_dir2.i, align 8
  store i64 %0, ptr %m_dir.i, align 8
  ret ptr %call

lpad:                                             ; preds = %entry
  %1 = landingpad { ptr, i32 }
          cleanup
  tail call void @_ZdlPv(ptr noundef nonnull %call) #11
  resume { ptr, i32 } %1
}